; Function Attrs: mustprogress uwtable
define noundef zeroext i1 @_ZN7rocksdb18SeqnoToTimeMapping11PrePopulateEmmmm(ptr noundef nonnull align 8 dereferenceable(97) %0, i64 noundef %1, i64 noundef %2, i64 noundef %3, i64 noundef %4) local_unnamed_addr #6 align 2 {
  %6 = alloca i64, align 8
  %7 = alloca i64, align 8
  call void @llvm.lifetime.start.p0(i64 8, ptr nonnull %6) #27
  store i64 %1, ptr %6, align 8, !tbaa !113
  %.not8 = icmp ugt i64 %1, %2
  br i1 %.not8, label %._crit_edge, label %.lr.ph

.lr.ph:                                           ; preds = %5
  %8 = sub i64 %4, %3
  %9 = sub nuw i64 %2, %1
  %10 = getelementptr inbounds nuw i8, ptr %0, i64 64
  %11 = getelementptr inbounds nuw i8, ptr %0, i64 80
  %12 = getelementptr inbounds nuw i8, ptr %0, i64 16
  br label %13

._crit_edge:                                      ; preds = %_ZNSt5dequeIN7rocksdb18SeqnoToTimeMapping13SeqnoTimePairESaIS2_EE12emplace_backIJRmS6_EEERS2_DpOT_.exit, %5
  call void @llvm.lifetime.end.p0(i64 8, ptr nonnull %6) #27
  ret i1 true

13:                                               ; preds = %.lr.ph, %_ZNSt5dequeIN7rocksdb18SeqnoToTimeMapping13SeqnoTimePairESaIS2_EE12emplace_backIJRmS6_EEERS2_DpOT_.exit
  %storemerge9 = phi i64 [ %1, %.lr.ph ], [ %26, %_ZNSt5dequeIN7rocksdb18SeqnoToTimeMapping13SeqnoTimePairESaIS2_EE12emplace_backIJRmS6_EEERS2_DpOT_.exit ]
  call void @llvm.lifetime.start.p0(i64 8, ptr nonnull %7) #27
  %14 = sub i64 %storemerge9, %1
  %15 = mul i64 %14, %8
  %16 = udiv i64 %15, %9
  %17 = add i64 %16, %3
  store i64 %17, ptr %7, align 8, !tbaa !113
  %18 = load ptr, ptr %10, align 8, !tbaa !236
  %19 = load ptr, ptr %11, align 8, !tbaa !237
  %20 = getelementptr inbounds i8, ptr %19, i64 -16
  %.not.i = icmp eq ptr %18, %20
  br i1 %.not.i, label %24, label %21

21:                                               ; preds = %13
  store i64 %storemerge9, ptr %18, align 8, !tbaa !56
  %22 = getelementptr inbounds nuw i8, ptr %18, i64 8
  store i64 %17, ptr %22, align 8, !tbaa !33
  %23 = getelementptr inbounds nuw i8, ptr %18, i64 16
  store ptr %23, ptr %10, align 8, !tbaa !236
  br label %_ZNSt5dequeIN7rocksdb18SeqnoToTimeMapping13SeqnoTimePairESaIS2_EE12emplace_backIJRmS6_EEERS2_DpOT_.exit

24:                                               ; preds = %13
  call void @_ZNSt5dequeIN7rocksdb18SeqnoToTimeMapping13SeqnoTimePairESaIS2_EE16_M_push_back_auxIJRmS6_EEEvDpOT_(ptr noundef nonnull align 8 dereferenceable(80) %12, ptr noundef nonnull align 8 dereferenceable(8) %6, ptr noundef nonnull align 8 dereferenceable(8) %7)
  br label %_ZNSt5dequeIN7rocksdb18SeqnoToTimeMapping13SeqnoTimePairESaIS2_EE12emplace_backIJRmS6_EEERS2_DpOT_.exit

_ZNSt5dequeIN7rocksdb18SeqnoToTimeMapping13SeqnoTimePairESaIS2_EE12emplace_backIJRmS6_EEERS2_DpOT_.exit: ; preds = %24, %21
  call void @llvm.lifetime.end.p0(i64 8, ptr nonnull %7) #27
  %25 = load i64, ptr %6, align 8, !tbaa !113
  %26 = add i64 %25, 1
  store i64 %26, ptr %6, align 8, !tbaa !113
  %.not = icmp ugt i64 %26, %2
  br i1 %.not, label %._crit_edge, label %13, !llvm.loop !313
}